target datalayout = "e-m:e-p270:32:32-p271:32:32-p272:64:64-i64:64-i128:128-f80:128-n8:16:32:64-S128"
target triple = "x86_64-pc-linux-gnu"

%struct._sccp_user_t = type { i32, ptr, ptr, i32, i8, ptr }

; Function Attrs: null_pointer_is_valid sspstrong uwtable
define internal void @sccp_users_free_cb(ptr noundef %0) #0 {
  %2 = alloca ptr, align 8
  %3 = alloca ptr, align 8
  store ptr %0, ptr %2, align 8
  call void @llvm.lifetime.start.p0(i64 8, ptr %3) #10
  %4 = load ptr, ptr %2, align 8
  store ptr %4, ptr %3, align 8
  %5 = load ptr, ptr %3, align 8
  %6 = getelementptr inbounds nuw %struct._sccp_user_t, ptr %5, i32 0, i32 1
  %7 = load ptr, ptr %6, align 8
  %8 = icmp ne ptr %7, null
  br i1 %8, label %9, label %13

9:                                                ; preds = %1
  %10 = load ptr, ptr %3, align 8
  %11 = getelementptr inbounds nuw %struct._sccp_user_t, ptr %10, i32 0, i32 1
  %12 = load ptr, ptr %11, align 8
  call void @wmem_free(ptr noundef null, ptr noundef %12)
  br label %13

13:                                               ; preds = %9, %1
  %14 = load ptr, ptr %3, align 8
  %15 = getelementptr inbounds nuw %struct._sccp_user_t, ptr %14, i32 0, i32 2
  %16 = load ptr, ptr %15, align 8
  %17 = icmp ne ptr %16, null
  br i1 %17, label %18, label %22

18:                                               ; preds = %13
  %19 = load ptr, ptr %3, align 8
  %20 = getelementptr inbounds nuw %struct._sccp_user_t, ptr %19, i32 0, i32 2
  %21 = load ptr, ptr %20, align 8
  call void @wmem_free(ptr noundef null, ptr noundef %21)
  br label %22

22:                                               ; preds = %18, %13
  call void @llvm.lifetime.end.p0(i64 8, ptr %3) #10
  ret void
}