; Function Attrs: null_pointer_is_valid sspstrong uwtable
define internal void @sccp_users_free_cb(ptr noundef readonly captures(none) %0) #0 {
  %2 = getelementptr inbounds nuw i8, ptr %0, i64 8
  %3 = load ptr, ptr %2, align 8
  %.not = icmp eq ptr %3, null
  br i1 %.not, label %5, label %4

4:                                                ; preds = %1
  tail call void @wmem_free(ptr noundef null, ptr noundef nonnull %3)
  br label %5

5:                                                ; preds = %4, %1
  %6 = getelementptr inbounds nuw i8, ptr %0, i64 16
  %7 = load ptr, ptr %6, align 8
  %.not6 = icmp eq ptr %7, null
  br i1 %.not6, label %9, label %8

8:                                                ; preds = %5
  tail call void @wmem_free(ptr noundef null, ptr noundef nonnull %7)
  br label %9

9:                                                ; preds = %8, %5
  ret void
}